; ModuleID = '31/1860.c'
source_filename = "31/1860.c"
target datalayout = "e-m:e-p270:32:32-p271:32:32-p272:64:64-i64:64-f80:128-n8:16:32:64-S128"
target triple = "x86_64-pc-linux-gnu"

%struct.student = type { [30 x i8], [20 x i8], i8, i32, [30 x i8], [20 x i8], %struct.student* }

@.str = private unnamed_addr constant [3 x i8] c"%s\00", align 1
@.str.1 = private unnamed_addr constant [15 x i8] c"%s %c %d %s %s\00", align 1
@.str.2 = private unnamed_addr constant [19 x i8] c"%s %s %c %d %s %s\0A\00", align 1

; Function Attrs: noinline nounwind uwtable
define dso_local i32 @main() #0 {
  %1 = alloca i32, align 4
  %2 = alloca %struct.student*, align 8
  %3 = alloca %struct.student*, align 8
  %4 = alloca %struct.student*, align 8
  %5 = alloca %struct.student*, align 8
  %6 = alloca %struct.student*, align 8
  %7 = alloca i32, align 4
  %8 = alloca i32, align 4
  store i32 0, i32* %1, align 4
  %9 = call noalias i8* @malloc(i64 120) #3
  %10 = bitcast i8* %9 to %struct.student*
  store %struct.student* %10, %struct.student** %2, align 8
  %11 = call noalias i8* @malloc(i64 120) #3
  %12 = bitcast i8* %11 to %struct.student*
  store %struct.student* %12, %struct.student** %3, align 8
  %13 = load %struct.student*, %struct.student** %3, align 8
  %14 = getelementptr inbounds %struct.student, %struct.student* %13, i32 0, i32 6
  store %struct.student* null, %struct.student** %14, align 8
  %15 = load %struct.student*, %struct.student** %2, align 8
  store %struct.student* %15, %struct.student** %6, align 8
  store i32 1, i32* %7, align 4
  br label %16

16:                                               ; preds = %92, %0
  %17 = load i32, i32* %7, align 4
  %18 = icmp eq i32 %17, 1
  br i1 %18, label %19, label %55

19:                                               ; preds = %16
  %20 = call noalias i8* @malloc(i64 120) #3
  %21 = bitcast i8* %20 to %struct.student*
  store %struct.student* %21, %struct.student** %4, align 8
  %22 = load %struct.student*, %struct.student** %4, align 8
  %23 = getelementptr inbounds %struct.student, %struct.student* %22, i32 0, i32 0
  %24 = getelementptr inbounds [30 x i8], [30 x i8]* %23, i64 0, i64 0
  %25 = call i32 (i8*, ...) @__isoc99_scanf(i8* getelementptr inbounds ([3 x i8], [3 x i8]* @.str, i64 0, i64 0), i8* %24)
  %26 = load %struct.student*, %struct.student** %4, align 8
  %27 = getelementptr inbounds %struct.student, %struct.student* %26, i32 0, i32 0
  %28 = getelementptr inbounds [30 x i8], [30 x i8]* %27, i64 0, i64 0
  %29 = load i8, i8* %28, align 8
  %30 = sext i8 %29 to i32
  %31 = icmp eq i32 %30, 101
  br i1 %31, label %32, label %33

32:                                               ; preds = %19
  br label %95

33:                                               ; preds = %19
  %34 = load %struct.student*, %struct.student** %4, align 8
  %35 = getelementptr inbounds %struct.student, %struct.student* %34, i32 0, i32 1
  %36 = getelementptr inbounds [20 x i8], [20 x i8]* %35, i64 0, i64 0
  %37 = load %struct.student*, %struct.student** %4, align 8
  %38 = getelementptr inbounds %struct.student, %struct.student* %37, i32 0, i32 2
  %39 = load %struct.student*, %struct.student** %4, align 8
  %40 = getelementptr inbounds %struct.student, %struct.student* %39, i32 0, i32 3
  %41 = load %struct.student*, %struct.student** %4, align 8
  %42 = getelementptr inbounds %struct.student, %struct.student* %41, i32 0, i32 4
  %43 = getelementptr inbounds [30 x i8], [30 x i8]* %42, i64 0, i64 0
  %44 = load %struct.student*, %struct.student** %4, align 8
  %45 = getelementptr inbounds %struct.student, %struct.student* %44, i32 0, i32 5
  %46 = getelementptr inbounds [20 x i8], [20 x i8]* %45, i64 0, i64 0
  %47 = call i32 (i8*, ...) @__isoc99_scanf(i8* getelementptr inbounds ([15 x i8], [15 x i8]* @.str.1, i64 0, i64 0), i8* %36, i8* %38, i32* %40, i8* %43, i8* %46)
  %48 = load %struct.student*, %struct.student** %4, align 8
  %49 = load %struct.student*, %struct.student** %2, align 8
  %50 = getelementptr inbounds %struct.student, %struct.student* %49, i32 0, i32 6
  store %struct.student* %48, %struct.student** %50, align 8
  %51 = load %struct.student*, %struct.student** %3, align 8
  %52 = load %struct.student*, %struct.student** %4, align 8
  %53 = getelementptr inbounds %struct.student, %struct.student* %52, i32 0, i32 6
  store %struct.student* %51, %struct.student** %53, align 8
  %54 = load %struct.student*, %struct.student** %4, align 8
  store %struct.student* %54, %struct.student** %5, align 8
  br label %91

55:                                               ; preds = %16
  %56 = call noalias i8* @malloc(i64 120) #3
  %57 = bitcast i8* %56 to %struct.student*
  store %struct.student* %57, %struct.student** %4, align 8
  %58 = load %struct.student*, %struct.student** %4, align 8
  %59 = getelementptr inbounds %struct.student, %struct.student* %58, i32 0, i32 0
  %60 = getelementptr inbounds [30 x i8], [30 x i8]* %59, i64 0, i64 0
  %61 = call i32 (i8*, ...) @__isoc99_scanf(i8* getelementptr inbounds ([3 x i8], [3 x i8]* @.str, i64 0, i64 0), i8* %60)
  %62 = load %struct.student*, %struct.student** %4, align 8
  %63 = getelementptr inbounds %struct.student, %struct.student* %62, i32 0, i32 0
  %64 = getelementptr inbounds [30 x i8], [30 x i8]* %63, i64 0, i64 0
  %65 = load i8, i8* %64, align 8
  %66 = sext i8 %65 to i32
  %67 = icmp eq i32 %66, 101
  br i1 %67, label %68, label %69

68:                                               ; preds = %55
  br label %95

69:                                               ; preds = %55
  %70 = load %struct.student*, %struct.student** %4, align 8
  %71 = getelementptr inbounds %struct.student, %struct.student* %70, i32 0, i32 1
  %72 = getelementptr inbounds [20 x i8], [20 x i8]* %71, i64 0, i64 0
  %73 = load %struct.student*, %struct.student** %4, align 8
  %74 = getelementptr inbounds %struct.student, %struct.student* %73, i32 0, i32 2
  %75 = load %struct.student*, %struct.student** %4, align 8
  %76 = getelementptr inbounds %struct.student, %struct.student* %75, i32 0, i32 3
  %77 = load %struct.student*, %struct.student** %4, align 8
  %78 = getelementptr inbounds %struct.student, %struct.student* %77, i32 0, i32 4
  %79 = getelementptr inbounds [30 x i8], [30 x i8]* %78, i64 0, i64 0
  %80 = load %struct.student*, %struct.student** %4, align 8
  %81 = getelementptr inbounds %struct.student, %struct.student* %80, i32 0, i32 5
  %82 = getelementptr inbounds [20 x i8], [20 x i8]* %81, i64 0, i64 0
  %83 = call i32 (i8*, ...) @__isoc99_scanf(i8* getelementptr inbounds ([15 x i8], [15 x i8]* @.str.1, i64 0, i64 0), i8* %72, i8* %74, i32* %76, i8* %79, i8* %82)
  %84 = load %struct.student*, %struct.student** %4, align 8
  %85 = load %struct.student*, %struct.student** %2, align 8
  %86 = getelementptr inbounds %struct.student, %struct.student* %85, i32 0, i32 6
  store %struct.student* %84, %struct.student** %86, align 8
  %87 = load %struct.student*, %struct.student** %5, align 8
  %88 = load %struct.student*, %struct.student** %4, align 8
  %89 = getelementptr inbounds %struct.student, %struct.student* %88, i32 0, i32 6
  store %struct.student* %87, %struct.student** %89, align 8
  %90 = load %struct.student*, %struct.student** %4, align 8
  store %struct.student* %90, %struct.student** %5, align 8
  br label %91

91:                                               ; preds = %69, %33
  br label %92

92:                                               ; preds = %91
  %93 = load i32, i32* %7, align 4
  %94 = add nsw i32 %93, 1
  store i32 %94, i32* %7, align 4
  br label %16

95:                                               ; preds = %68, %32
  %96 = load %struct.student*, %struct.student** %2, align 8
  %97 = getelementptr inbounds %struct.student, %struct.student* %96, i32 0, i32 6
  %98 = load %struct.student*, %struct.student** %97, align 8
  store %struct.student* %98, %struct.student** %6, align 8
  br label %99

99:                                               ; preds = %104, %95
  %100 = load %struct.student*, %struct.student** %6, align 8
  %101 = getelementptr inbounds %struct.student, %struct.student* %100, i32 0, i32 6
  %102 = load %struct.student*, %struct.student** %101, align 8
  %103 = icmp ne %struct.student* %102, null
  br i1 %103, label %104, label %128

104:                                              ; preds = %99
  %105 = load %struct.student*, %struct.student** %6, align 8
  %106 = getelementptr inbounds %struct.student, %struct.student* %105, i32 0, i32 0
  %107 = getelementptr inbounds [30 x i8], [30 x i8]* %106, i64 0, i64 0
  %108 = load %struct.student*, %struct.student** %6, align 8
  %109 = getelementptr inbounds %struct.student, %struct.student* %108, i32 0, i32 1
  %110 = getelementptr inbounds [20 x i8], [20 x i8]* %109, i64 0, i64 0
  %111 = load %struct.student*, %struct.student** %6, align 8
  %112 = getelementptr inbounds %struct.student, %struct.student* %111, i32 0, i32 2
  %113 = load i8, i8* %112, align 2
  %114 = sext i8 %113 to i32
  %115 = load %struct.student*, %struct.student** %6, align 8
  %116 = getelementptr inbounds %struct.student, %struct.student* %115, i32 0, i32 3
  %117 = load i32, i32* %116, align 4
  %118 = load %struct.student*, %struct.student** %6, align 8
  %119 = getelementptr inbounds %struct.student, %struct.student* %118, i32 0, i32 4
  %120 = getelementptr inbounds [30 x i8], [30 x i8]* %119, i64 0, i64 0
  %121 = load %struct.student*, %struct.student** %6, align 8
  %122 = getelementptr inbounds %struct.student, %struct.student* %121, i32 0, i32 5
  %123 = getelementptr inbounds [20 x i8], [20 x i8]* %122, i64 0, i64 0
  %124 = call i32 (i8*, ...) @printf(i8* getelementptr inbounds ([19 x i8], [19 x i8]* @.str.2, i64 0, i64 0), i8* %107, i8* %110, i32 %114, i32 %117, i8* %120, i8* %123)
  %125 = load %struct.student*, %struct.student** %6, align 8
  %126 = getelementptr inbounds %struct.student, %struct.student* %125, i32 0, i32 6
  %127 = load %struct.student*, %struct.student** %126, align 8
  store %struct.student* %127, %struct.student** %6, align 8
  br label %99

128:                                              ; preds = %99
  %129 = load i32, i32* %1, align 4
  ret i32 %129
}

; Function Attrs: nounwind
declare dso_local noalias i8* @malloc(i64) #1

declare dso_local i32 @__isoc99_scanf(i8*, ...) #2

declare dso_local i32 @printf(i8*, ...) #2


!llvm.module.flags = !{!0}
!llvm.ident = !{!1}

!0 = !{i32 1, !"wchar_size", i32 4}
!1 = !{!"clang version 10.0.0-4ubuntu1 "}
